; Function Attrs: mustprogress nounwind uwtable
define dso_local noundef nonnull align 8 dereferenceable(24) ptr @_ZNR5vcpkg4Json5Value6objectENS_8LineInfoE(ptr nocapture noundef nonnull readonly align 8 dereferenceable(8) %0, i32 %1, ptr %2) local_unnamed_addr #1 align 2 personality ptr @__gxx_personality_v0 {
  %4 = alloca %"struct.vcpkg::LocalizedString", align 8
  %5 = alloca %"struct.vcpkg::LineInfo", align 8
  store i32 %1, ptr %5, align 8
  %6 = getelementptr inbounds i8, ptr %5, i64 8
  store ptr %2, ptr %6, align 8
  %7 = load ptr, ptr %0, align 8
  %.not.i.i = icmp eq ptr %7, null
  br i1 %.not.i.i, label %_ZNK5vcpkg4Json5Value9is_objectEv.exit.thread, label %_ZNK5vcpkg4Json5Value9is_objectEv.exit

_ZNK5vcpkg4Json5Value9is_objectEv.exit.thread:    ; preds = %3
  %.sroa.0.0.copyload2 = load i64, ptr @_ZN5vcpkg21msgJsonValueNotObjectE, align 8
  call void @llvm.lifetime.start.p0(i64 32, ptr nonnull %4)
  br label %10

_ZNK5vcpkg4Json5Value9is_objectEv.exit:           ; preds = %3
  %8 = load i32, ptr %7, align 8
  %9 = icmp eq i32 %8, 6
  %.sroa.0.0.copyload = load i64, ptr @_ZN5vcpkg21msgJsonValueNotObjectE, align 8
  call void @llvm.lifetime.start.p0(i64 32, ptr nonnull %4)
  br i1 %9, label %14, label %10

10:                                               ; preds = %_ZNK5vcpkg4Json5Value9is_objectEv.exit.thread, %_ZNK5vcpkg4Json5Value9is_objectEv.exit
  %.sroa.0.0.copyload3 = phi i64 [ %.sroa.0.0.copyload2, %_ZNK5vcpkg4Json5Value9is_objectEv.exit.thread ], [ %.sroa.0.0.copyload, %_ZNK5vcpkg4Json5Value9is_objectEv.exit ]
  invoke void @_ZN5vcpkg3msg6formatIJEJEEENS_15LocalizedStringENS0_8MessageTIJDpT_EEEDpNS0_6TagArgINS_8identityIS4_E4typeET0_EE(ptr dead_on_unwind nonnull writable sret(%"struct.vcpkg::LocalizedString") align 8 %4, i64 %.sroa.0.0.copyload3)
          to label %.noexc unwind label %16

.noexc:                                           ; preds = %10
  invoke void @_ZN5vcpkg6Checks21msg_exit_with_messageERKNS_8LineInfoERKNS_15LocalizedStringE(ptr noundef nonnull align 8 dereferenceable(16) %5, ptr noundef nonnull align 8 dereferenceable(32) %4) #27
          to label %11 unwind label %12

11:                                               ; preds = %.noexc
  unreachable

12:                                               ; preds = %.noexc
  %13 = landingpad { ptr, i32 }
          catch ptr null
  call void @_ZNSt7__cxx1112basic_stringIcSt11char_traitsIcESaIcEED1Ev(ptr noundef nonnull align 8 dereferenceable(32) %4) #26
  br label %.body

14:                                               ; preds = %_ZNK5vcpkg4Json5Value9is_objectEv.exit
  call void @llvm.lifetime.end.p0(i64 32, ptr nonnull %4)
  %15 = getelementptr inbounds i8, ptr %7, i64 8
  ret ptr %15

16:                                               ; preds = %10
  %17 = landingpad { ptr, i32 }
          catch ptr null
  br label %.body

.body:                                            ; preds = %12, %16
  %eh.lpad-body = phi { ptr, i32 } [ %17, %16 ], [ %13, %12 ]
  %18 = extractvalue { ptr, i32 } %eh.lpad-body, 0
  call void @__clang_call_terminate(ptr %18) #25
  unreachable
}